; Function Attrs: nounwind uwtable
define ptr @l_Lean_Elab_Term_expandCDot_x3f_go___lambda__2___boxed(ptr noundef %0, ptr noundef %1, ptr noundef %2, ptr noundef %3, ptr noundef %4, ptr noundef %5, ptr noundef %6, ptr noundef %7) local_unnamed_addr #0 {
  %9 = getelementptr i8, ptr %1, i64 8
  %.val = load i64, ptr %9, align 8, !tbaa !12
  %10 = ptrtoint ptr %1 to i64
  %11 = and i64 %10, 1
  %.not = icmp eq i64 %11, 0
  br i1 %.not, label %12, label %lean_dec.exit13

12:                                               ; preds = %8
  %13 = load i32, ptr %1, align 4, !tbaa !4
  %14 = icmp sgt i32 %13, 1
  br i1 %14, label %15, label %17, !prof !9

15:                                               ; preds = %12
  %16 = add nsw i32 %13, -1
  store i32 %16, ptr %1, align 4, !tbaa !4
  br label %lean_dec.exit13

17:                                               ; preds = %12
  %.not.i = icmp eq i32 %13, 0
  br i1 %.not.i, label %lean_dec.exit13, label %18

18:                                               ; preds = %17
  tail call void @lean_dec_ref_cold(ptr noundef nonnull %1) #6
  br label %lean_dec.exit13

lean_dec.exit13:                                  ; preds = %18, %17, %15, %8
  %19 = getelementptr i8, ptr %0, i64 8
  %.val.i = load i64, ptr %19, align 8, !tbaa !12
  %20 = tail call ptr @l_Array_mapMUnsafe_map___at_Lean_Elab_Term_expandCDot_x3f_go___spec__3(i64 noundef %.val.i, i64 noundef %.val, ptr noundef %0)
  %21 = tail call ptr @lean_apply_4(ptr noundef %2, ptr noundef %20, ptr noundef %3, ptr noundef %6, ptr noundef %7) #6
  %22 = ptrtoint ptr %5 to i64
  %23 = and i64 %22, 1
  %.not18 = icmp eq i64 %23, 0
  br i1 %.not18, label %24, label %lean_dec.exit12

24:                                               ; preds = %lean_dec.exit13
  %25 = load i32, ptr %5, align 4, !tbaa !4
  %26 = icmp sgt i32 %25, 1
  br i1 %26, label %27, label %29, !prof !9

27:                                               ; preds = %24
  %28 = add nsw i32 %25, -1
  store i32 %28, ptr %5, align 4, !tbaa !4
  br label %lean_dec.exit12

29:                                               ; preds = %24
  %.not.i14 = icmp eq i32 %25, 0
  br i1 %.not.i14, label %lean_dec.exit12, label %30

30:                                               ; preds = %29
  tail call void @lean_dec_ref_cold(ptr noundef nonnull %5) #6
  br label %lean_dec.exit12

lean_dec.exit12:                                  ; preds = %30, %29, %27, %lean_dec.exit13
  %31 = ptrtoint ptr %4 to i64
  %32 = and i64 %31, 1
  %.not19 = icmp eq i64 %32, 0
  br i1 %.not19, label %33, label %lean_dec.exit

33:                                               ; preds = %lean_dec.exit12
  %34 = load i32, ptr %4, align 4, !tbaa !4
  %35 = icmp sgt i32 %34, 1
  br i1 %35, label %36, label %38, !prof !9

36:                                               ; preds = %33
  %37 = add nsw i32 %34, -1
  store i32 %37, ptr %4, align 4, !tbaa !4
  br label %lean_dec.exit

38:                                               ; preds = %33
  %.not.i16 = icmp eq i32 %34, 0
  br i1 %.not.i16, label %lean_dec.exit, label %39

39:                                               ; preds = %38
  tail call void @lean_dec_ref_cold(ptr noundef nonnull %4) #6
  br label %lean_dec.exit

lean_dec.exit:                                    ; preds = %39, %38, %36, %lean_dec.exit12
  ret ptr %21
}